target datalayout = "e-m:e-p270:32:32-p271:32:32-p272:64:64-i64:64-i128:128-f80:128-n8:16:32:64-S128"
target triple = "x86_64-pc-linux-gnu"

%struct.AVCodecDescriptor = type { i32, i32, ptr, ptr, i32, ptr, ptr }
%struct.AVBitStreamFilter = type { ptr, ptr, ptr }

@.str.14 = private unnamed_addr constant [2 x i8] c"\0A\00", align 1
@.str.127 = private unnamed_addr constant [4 x i8] c" %s\00", align 1
@.str.154 = private unnamed_addr constant [37 x i8] c"No bitstream filter name specified.\0A\00", align 1
@.str.155 = private unnamed_addr constant [33 x i8] c"Unknown bit stream filter '%s'.\0A\00", align 1
@.str.156 = private unnamed_addr constant [22 x i8] c"Bit stream filter %s\0A\00", align 1
@.str.157 = private unnamed_addr constant [22 x i8] c"    Supported codecs:\00", align 1

; Function Attrs: nounwind uwtable
define internal void @show_help_bsf(ptr noundef %0) #0 {
  %2 = alloca ptr, align 8
  %3 = alloca ptr, align 8
  %4 = alloca i32, align 4
  %5 = alloca ptr, align 8
  store ptr %0, ptr %2, align 8, !tbaa !8
  call void @llvm.lifetime.start.p0(i64 8, ptr %3) #11
  %6 = load ptr, ptr %2, align 8, !tbaa !8
  %7 = call ptr @av_bsf_get_by_name(ptr noundef %6)
  store ptr %7, ptr %3, align 8, !tbaa !64
  %8 = load ptr, ptr %2, align 8, !tbaa !8
  %9 = icmp ne ptr %8, null
  br i1 %9, label %11, label %10

10:                                               ; preds = %1
  call void (ptr, i32, ptr, ...) @av_log(ptr noundef null, i32 noundef 16, ptr noundef @.str.154)
  store i32 1, ptr %4, align 4
  br label %56

11:                                               ; preds = %1
  %12 = load ptr, ptr %3, align 8, !tbaa !64
  %13 = icmp ne ptr %12, null
  br i1 %13, label %16, label %14

14:                                               ; preds = %11
  %15 = load ptr, ptr %2, align 8, !tbaa !8
  call void (ptr, i32, ptr, ...) @av_log(ptr noundef null, i32 noundef 16, ptr noundef @.str.155, ptr noundef %15)
  store i32 1, ptr %4, align 4
  br label %56

16:                                               ; preds = %11
  br label %17

17:                                               ; preds = %16
  %18 = load ptr, ptr %3, align 8, !tbaa !64
  %19 = getelementptr inbounds nuw %struct.AVBitStreamFilter, ptr %18, i32 0, i32 0
  %20 = load ptr, ptr %19, align 8, !tbaa !66
  %21 = call i32 (ptr, ...) @printf(ptr noundef @.str.156, ptr noundef %20)
  %22 = load ptr, ptr %3, align 8, !tbaa !64
  %23 = getelementptr inbounds nuw %struct.AVBitStreamFilter, ptr %22, i32 0, i32 1
  %24 = load ptr, ptr %23, align 8, !tbaa !68
  %25 = icmp ne ptr %24, null
  br i1 %25, label %26, label %46

26:                                               ; preds = %17
  call void @llvm.lifetime.start.p0(i64 8, ptr %5) #11
  %27 = load ptr, ptr %3, align 8, !tbaa !64
  %28 = getelementptr inbounds nuw %struct.AVBitStreamFilter, ptr %27, i32 0, i32 1
  %29 = load ptr, ptr %28, align 8, !tbaa !68
  store ptr %29, ptr %5, align 8, !tbaa !4
  %30 = call i32 (ptr, ...) @printf(ptr noundef @.str.157)
  br label %31

31:                                               ; preds = %35, %26
  %32 = load ptr, ptr %5, align 8, !tbaa !4
  %33 = load i32, ptr %32, align 4, !tbaa !10
  %34 = icmp ne i32 %33, 0
  br i1 %34, label %35, label %44

35:                                               ; preds = %31
  %36 = load ptr, ptr %5, align 8, !tbaa !4
  %37 = load i32, ptr %36, align 4, !tbaa !10
  %38 = call ptr @avcodec_descriptor_get(i32 noundef %37)
  %39 = getelementptr inbounds nuw %struct.AVCodecDescriptor, ptr %38, i32 0, i32 2
  %40 = load ptr, ptr %39, align 8, !tbaa !47
  %41 = call i32 (ptr, ...) @printf(ptr noundef @.str.127, ptr noundef %40)
  %42 = load ptr, ptr %5, align 8, !tbaa !4
  %43 = getelementptr inbounds nuw i32, ptr %42, i32 1
  store ptr %43, ptr %5, align 8, !tbaa !4
  br label %31, !llvm.loop !69

44:                                               ; preds = %31
  %45 = call i32 (ptr, ...) @printf(ptr noundef @.str.14)
  call void @llvm.lifetime.end.p0(i64 8, ptr %5) #11
  br label %46

46:                                               ; preds = %44, %17
  %47 = load ptr, ptr %3, align 8, !tbaa !64
  %48 = getelementptr inbounds nuw %struct.AVBitStreamFilter, ptr %47, i32 0, i32 2
  %49 = load ptr, ptr %48, align 8, !tbaa !70
  %50 = icmp ne ptr %49, null
  br i1 %50, label %51, label %55

51:                                               ; preds = %46
  %52 = load ptr, ptr %3, align 8, !tbaa !64
  %53 = getelementptr inbounds nuw %struct.AVBitStreamFilter, ptr %52, i32 0, i32 2
  %54 = load ptr, ptr %53, align 8, !tbaa !70
  call void @show_help_children(ptr noundef %54, i32 noundef 256)
  br label %55

55:                                               ; preds = %51, %46
  store i32 0, ptr %4, align 4
  br label %56

56:                                               ; preds = %55, %14, %10
  call void @llvm.lifetime.end.p0(i64 8, ptr %3) #11
  %57 = load i32, ptr %4, align 4
  switch i32 %57, label %59 [
    i32 0, label %58
    i32 1, label %58
  ]

58:                                               ; preds = %56, %56
  ret void

59:                                               ; preds = %56
  unreachable
}