; Function Attrs: nounwind uwtable
define internal fastcc void @show_help_bsf(ptr noundef %0) unnamed_addr #2 {
  %2 = tail call ptr @av_bsf_get_by_name(ptr noundef %0) #17
  %.not = icmp eq ptr %0, null
  br i1 %.not, label %3, label %4

3:                                                ; preds = %1
  tail call void (ptr, i32, ptr, ...) @av_log(ptr noundef null, i32 noundef 16, ptr noundef nonnull @.str.154) #17
  br label %25

4:                                                ; preds = %1
  %.not17 = icmp eq ptr %2, null
  br i1 %.not17, label %5, label %6

5:                                                ; preds = %4
  tail call void (ptr, i32, ptr, ...) @av_log(ptr noundef null, i32 noundef 16, ptr noundef nonnull @.str.155, ptr noundef nonnull %0) #17
  br label %25

6:                                                ; preds = %4
  %7 = load ptr, ptr %2, align 8, !tbaa !56
  %8 = tail call i32 (ptr, ...) @printf(ptr noundef nonnull dereferenceable(1) @.str.156, ptr noundef %7)
  %9 = getelementptr inbounds nuw i8, ptr %2, i64 8
  %10 = load ptr, ptr %9, align 8, !tbaa !58
  %.not18 = icmp eq ptr %10, null
  br i1 %.not18, label %21, label %11

11:                                               ; preds = %6
  %12 = tail call i32 (ptr, ...) @printf(ptr noundef nonnull dereferenceable(1) @.str.157)
  %13 = load i32, ptr %10, align 4, !tbaa !4
  %.not1921 = icmp eq i32 %13, 0
  br i1 %.not1921, label %._crit_edge, label %.lr.ph

.lr.ph:                                           ; preds = %11, %.lr.ph
  %14 = phi i32 [ %20, %.lr.ph ], [ %13, %11 ]
  %.022 = phi ptr [ %19, %.lr.ph ], [ %10, %11 ]
  %15 = tail call ptr @avcodec_descriptor_get(i32 noundef %14) #17
  %16 = getelementptr inbounds nuw i8, ptr %15, i64 8
  %17 = load ptr, ptr %16, align 8, !tbaa !30
  %18 = tail call i32 (ptr, ...) @printf(ptr noundef nonnull dereferenceable(1) @.str.127, ptr noundef %17)
  %19 = getelementptr inbounds nuw i8, ptr %.022, i64 4
  %20 = load i32, ptr %19, align 4, !tbaa !4
  %.not19 = icmp eq i32 %20, 0
  br i1 %.not19, label %._crit_edge, label %.lr.ph, !llvm.loop !59

._crit_edge:                                      ; preds = %.lr.ph, %11
  %putchar = tail call i32 @putchar(i32 10)
  br label %21

21:                                               ; preds = %._crit_edge, %6
  %22 = getelementptr inbounds nuw i8, ptr %2, i64 16
  %23 = load ptr, ptr %22, align 8, !tbaa !60
  %.not20 = icmp eq ptr %23, null
  br i1 %.not20, label %25, label %24

24:                                               ; preds = %21
  tail call void @show_help_children(ptr noundef nonnull %23, i32 noundef 256) #17
  br label %25

25:                                               ; preds = %21, %24, %5, %3
  ret void
}